; Function Attrs: mustprogress nofree norecurse nosync nounwind willreturn memory(read, inaccessiblemem: none) uwtable
define { ptr, ptr } @_ZN3gmx18ObservablesReducer19communicationBufferEb(ptr noundef nonnull readonly align 8 captures(none) dereferenceable(8) %0, i1 noundef zeroext %1) local_unnamed_addr #7 align 2 {
  %3 = load ptr, ptr %0, align 8, !tbaa !4
  %4 = getelementptr inbounds nuw i8, ptr %3, i64 48
  %5 = load ptr, ptr %4, align 8, !tbaa !41
  %6 = getelementptr inbounds nuw i8, ptr %3, i64 56
  %7 = load ptr, ptr %6, align 8, !tbaa !41
  %8 = icmp eq ptr %5, %7
  br i1 %8, label %21, label %9

9:                                                ; preds = %2
  %10 = getelementptr inbounds nuw i8, ptr %3, i64 72
  %11 = load i8, ptr %10, align 8, !tbaa !26, !range !39, !noundef !40
  %12 = trunc nuw i8 %11 to i1
  %brmerge = or i1 %1, %12
  br i1 %brmerge, label %13, label %21

13:                                               ; preds = %9
  %14 = load ptr, ptr %3, align 8, !tbaa !22
  %15 = getelementptr inbounds nuw i8, ptr %3, i64 8
  %16 = load ptr, ptr %15, align 8, !tbaa !42
  %17 = ptrtoint ptr %16 to i64
  %18 = ptrtoint ptr %14 to i64
  %19 = sub i64 %17, %18
  %20 = getelementptr inbounds nuw i8, ptr %14, i64 %19
  br label %21

21:                                               ; preds = %2, %9, %13
  %.sroa.0.0 = phi ptr [ %14, %13 ], [ null, %9 ], [ null, %2 ]
  %.sroa.3.0 = phi ptr [ %20, %13 ], [ null, %9 ], [ null, %2 ]
  %.fca.0.insert = insertvalue { ptr, ptr } poison, ptr %.sroa.0.0, 0
  %.fca.1.insert = insertvalue { ptr, ptr } %.fca.0.insert, ptr %.sroa.3.0, 1
  ret { ptr, ptr } %.fca.1.insert
}